target datalayout = "e-m:e-p270:32:32-p271:32:32-p272:64:64-i64:64-i128:128-f80:128-n8:16:32:64-S128"
target triple = "x86_64-pc-linux-gnu"

%struct.darktable_t = type { %struct.dt_codepath_t, i32, i32, ptr, ptr, ptr, ptr, ptr, ptr, ptr, ptr, ptr, ptr, ptr, ptr, ptr, ptr, ptr, ptr, ptr, ptr, ptr, ptr, ptr, ptr, ptr, ptr, ptr, ptr, ptr, [64 x %struct.dt_pthread_mutex_t], %struct.dt_pthread_mutex_t, %struct.dt_pthread_mutex_t, %struct.dt_pthread_mutex_t, %struct.dt_pthread_mutex_t, %struct.dt_pthread_mutex_t, ptr, ptr, ptr, ptr, ptr, ptr, ptr, ptr, ptr, ptr, ptr, ptr, ptr, %struct.dt_lua_state_t, ptr, double, ptr, i32, [47 x i32], i32, i32, ptr, ptr, %struct.dt_sys_resources_t, %struct.dt_backthumb_t, %struct.dt_gimp_t }
%struct.dt_codepath_t = type { i8, [3 x i8] }
%struct.dt_pthread_mutex_t = type { %union.pthread_mutex_t }
%union.pthread_mutex_t = type { %struct.__pthread_mutex_s }
%struct.__pthread_mutex_s = type { i32, i32, i32, i32, i32, i16, i16, %struct.__pthread_internal_list }
%struct.__pthread_internal_list = type { ptr, ptr }
%struct.dt_lua_state_t = type { i32 }
%struct.dt_sys_resources_t = type { i64, i64, ptr, ptr, i32 }
%struct.dt_backthumb_t = type { double, double, i32, i32, i32, i32 }
%struct.dt_gimp_t = type { i32, ptr, ptr, i32, i32 }
%struct.dt_lib_module_t = type { %struct.dt_action_t, ptr, ptr, ptr, ptr, ptr, ptr, ptr, ptr, ptr, ptr, ptr, ptr, ptr, ptr, ptr, ptr, ptr, ptr, ptr, ptr, ptr, ptr, ptr, ptr, ptr, ptr, ptr, ptr, ptr, ptr, [128 x i8], ptr, ptr, i32, ptr, ptr, ptr, i32 }
%struct.dt_action_t = type { i32, ptr, ptr, ptr, ptr, ptr }
%struct.dt_lib_tagging_t = type { [1024 x i8], ptr, ptr, ptr, ptr, ptr, ptr, ptr, ptr, ptr, ptr, ptr, ptr, ptr, ptr, ptr, ptr, ptr, ptr, ptr, ptr, ptr, i32, i32, i32, i32, i32, ptr, ptr, %struct.anon, i32 }
%struct.anon = type { ptr, ptr, ptr, i32, i32, i32, i32, i32 }
%struct.dt_gui_gtk_t = type { ptr, %struct.dt_gui_widgets_t, %struct.dt_gui_scrollbars_t, i32, ptr, i32, [39 x %struct._GdkRGBA], i32, i32, i32, i32, i32, double, double, double, double, ptr, double, double, double, double, i32, i32, [4096 x i8], i32, i32, i32, %struct.dt_pthread_mutex_t }
%struct.dt_gui_widgets_t = type { ptr, ptr, ptr, ptr, i32, i32, i32 }
%struct.dt_gui_scrollbars_t = type { ptr, ptr, i32 }
%struct._GdkRGBA = type { double, double, double, double }

@darktable = external global %struct.darktable_t, align 8
@.str.89 = private unnamed_addr constant [41 x i8] c"plugins/lighttable/tagging/hidehierarchy\00", align 1

; Function Attrs: nounwind uwtable
define internal void @_sort_dictionary_list(ptr noundef %0, i32 noundef %1) #0 {
  %3 = alloca ptr, align 8
  %4 = alloca i32, align 4
  %5 = alloca ptr, align 8
  %6 = alloca i32, align 4
  store ptr %0, ptr %3, align 8, !tbaa !6
  store i32 %1, ptr %4, align 4, !tbaa !31
  call void @llvm.lifetime.start.p0(i64 8, ptr %5) #11
  %7 = load ptr, ptr %3, align 8, !tbaa !6
  %8 = getelementptr inbounds nuw %struct.dt_lib_module_t, ptr %7, i32 0, i32 30
  %9 = load ptr, ptr %8, align 8, !tbaa !11
  store ptr %9, ptr %5, align 8, !tbaa !19
  %10 = load ptr, ptr %5, align 8, !tbaa !19
  %11 = getelementptr inbounds nuw %struct.dt_lib_tagging_t, ptr %10, i32 0, i32 22
  %12 = load i32, ptr %11, align 8, !tbaa !38
  %13 = icmp ne i32 %12, 0
  br i1 %13, label %48, label %14

14:                                               ; preds = %2
  %15 = load i32, ptr %4, align 4, !tbaa !31
  %16 = icmp ne i32 %15, 0
  br i1 %16, label %17, label %28

17:                                               ; preds = %14
  %18 = load ptr, ptr %5, align 8, !tbaa !19
  %19 = getelementptr inbounds nuw %struct.dt_lib_tagging_t, ptr %18, i32 0, i32 24
  %20 = load i32, ptr %19, align 8, !tbaa !181
  %21 = icmp ne i32 %20, 0
  br i1 %21, label %22, label %28

22:                                               ; preds = %17
  %23 = load ptr, ptr %5, align 8, !tbaa !19
  %24 = getelementptr inbounds nuw %struct.dt_lib_tagging_t, ptr %23, i32 0, i32 16
  %25 = load ptr, ptr %24, align 8, !tbaa !42
  %26 = call i64 @gtk_tree_sortable_get_type() #12
  %27 = call ptr @g_type_check_instance_cast(ptr noundef %25, i64 noundef %26)
  call void @gtk_tree_sortable_set_sort_column_id(ptr noundef %27, i32 noundef 1, i32 noundef 0)
  br label %28

28:                                               ; preds = %22, %17, %14
  call void @llvm.lifetime.start.p0(i64 4, ptr %6) #11
  %29 = load ptr, ptr %5, align 8, !tbaa !19
  %30 = getelementptr inbounds nuw %struct.dt_lib_tagging_t, ptr %29, i32 0, i32 24
  %31 = load i32, ptr %30, align 8, !tbaa !181
  %32 = icmp ne i32 %31, 0
  br i1 %32, label %33, label %34

33:                                               ; preds = %28
  br label %40

34:                                               ; preds = %28
  %35 = load ptr, ptr %5, align 8, !tbaa !19
  %36 = getelementptr inbounds nuw %struct.dt_lib_tagging_t, ptr %35, i32 0, i32 25
  %37 = load i32, ptr %36, align 4, !tbaa !182
  %38 = icmp ne i32 %37, 0
  %39 = select i1 %38, i32 1, i32 0
  br label %40

40:                                               ; preds = %34, %33
  %41 = phi i32 [ 2, %33 ], [ %39, %34 ]
  store i32 %41, ptr %6, align 4, !tbaa !31
  %42 = load ptr, ptr %5, align 8, !tbaa !19
  %43 = getelementptr inbounds nuw %struct.dt_lib_tagging_t, ptr %42, i32 0, i32 16
  %44 = load ptr, ptr %43, align 8, !tbaa !42
  %45 = call i64 @gtk_tree_sortable_get_type() #12
  %46 = call ptr @g_type_check_instance_cast(ptr noundef %44, i64 noundef %45)
  %47 = load i32, ptr %6, align 4, !tbaa !31
  call void @gtk_tree_sortable_set_sort_column_id(ptr noundef %46, i32 noundef %47, i32 noundef 0)
  call void @llvm.lifetime.end.p0(i64 4, ptr %6) #11
  br label %54

48:                                               ; preds = %2
  %49 = load ptr, ptr %5, align 8, !tbaa !19
  %50 = getelementptr inbounds nuw %struct.dt_lib_tagging_t, ptr %49, i32 0, i32 17
  %51 = load ptr, ptr %50, align 8, !tbaa !41
  %52 = call i64 @gtk_tree_sortable_get_type() #12
  %53 = call ptr @g_type_check_instance_cast(ptr noundef %51, i64 noundef %52)
  call void @gtk_tree_sortable_set_sort_column_id(ptr noundef %53, i32 noundef 0, i32 noundef 0)
  br label %54

54:                                               ; preds = %48, %40
  call void @llvm.lifetime.end.p0(i64 8, ptr %5) #11
  ret void
}

; Function Attrs: nounwind uwtable
define internal void @_sort_attached_list(ptr noundef %0, i32 noundef %1) #0 {
  %3 = alloca ptr, align 8
  %4 = alloca i32, align 4
  %5 = alloca ptr, align 8
  %6 = alloca i32, align 4
  store ptr %0, ptr %3, align 8, !tbaa !6
  store i32 %1, ptr %4, align 4, !tbaa !31
  call void @llvm.lifetime.start.p0(i64 8, ptr %5) #11
  %7 = load ptr, ptr %3, align 8, !tbaa !6
  %8 = getelementptr inbounds nuw %struct.dt_lib_module_t, ptr %7, i32 0, i32 30
  %9 = load ptr, ptr %8, align 8, !tbaa !11
  store ptr %9, ptr %5, align 8, !tbaa !19
  %10 = load i32, ptr %4, align 4, !tbaa !31
  %11 = icmp ne i32 %10, 0
  br i1 %11, label %12, label %23

12:                                               ; preds = %2
  %13 = load ptr, ptr %5, align 8, !tbaa !19
  %14 = getelementptr inbounds nuw %struct.dt_lib_tagging_t, ptr %13, i32 0, i32 24
  %15 = load i32, ptr %14, align 8, !tbaa !181
  %16 = icmp ne i32 %15, 0
  br i1 %16, label %17, label %23

17:                                               ; preds = %12
  %18 = load ptr, ptr %5, align 8, !tbaa !19
  %19 = getelementptr inbounds nuw %struct.dt_lib_tagging_t, ptr %18, i32 0, i32 15
  %20 = load ptr, ptr %19, align 8, !tbaa !110
  %21 = call i64 @gtk_tree_sortable_get_type() #12
  %22 = call ptr @g_type_check_instance_cast(ptr noundef %20, i64 noundef %21)
  call void @gtk_tree_sortable_set_sort_column_id(ptr noundef %22, i32 noundef 1, i32 noundef 0)
  br label %23

23:                                               ; preds = %17, %12, %2
  call void @llvm.lifetime.start.p0(i64 4, ptr %6) #11
  %24 = load ptr, ptr %5, align 8, !tbaa !19
  %25 = getelementptr inbounds nuw %struct.dt_lib_tagging_t, ptr %24, i32 0, i32 24
  %26 = load i32, ptr %25, align 8, !tbaa !181
  %27 = icmp ne i32 %26, 0
  br i1 %27, label %28, label %29

28:                                               ; preds = %23
  br label %35

29:                                               ; preds = %23
  %30 = load ptr, ptr %5, align 8, !tbaa !19
  %31 = getelementptr inbounds nuw %struct.dt_lib_tagging_t, ptr %30, i32 0, i32 25
  %32 = load i32, ptr %31, align 4, !tbaa !182
  %33 = icmp ne i32 %32, 0
  %34 = select i1 %33, i32 1, i32 0
  br label %35

35:                                               ; preds = %29, %28
  %36 = phi i32 [ 2, %28 ], [ %34, %29 ]
  store i32 %36, ptr %6, align 4, !tbaa !31
  %37 = load ptr, ptr %5, align 8, !tbaa !19
  %38 = getelementptr inbounds nuw %struct.dt_lib_tagging_t, ptr %37, i32 0, i32 15
  %39 = load ptr, ptr %38, align 8, !tbaa !110
  %40 = call i64 @gtk_tree_sortable_get_type() #12
  %41 = call ptr @g_type_check_instance_cast(ptr noundef %39, i64 noundef %40)
  %42 = load i32, ptr %6, align 4, !tbaa !31
  call void @gtk_tree_sortable_set_sort_column_id(ptr noundef %41, i32 noundef %42, i32 noundef 0)
  call void @llvm.lifetime.end.p0(i64 4, ptr %6) #11
  call void @llvm.lifetime.end.p0(i64 8, ptr %5) #11
  ret void
}

; Function Attrs: nounwind uwtable
define internal void @_toggle_hide_button_callback(ptr noundef %0, ptr noundef %1) #0 {
  %3 = alloca ptr, align 8
  %4 = alloca ptr, align 8
  %5 = alloca i32, align 4
  store ptr %0, ptr %3, align 8, !tbaa !156
  store ptr %1, ptr %4, align 8, !tbaa !6
  %6 = load ptr, ptr getelementptr inbounds nuw (%struct.darktable_t, ptr @darktable, i32 0, i32 14), align 8, !tbaa !158
  %7 = getelementptr inbounds nuw %struct.dt_gui_gtk_t, ptr %6, i32 0, i32 5
  %8 = load i32, ptr %7, align 8, !tbaa !159
  %9 = icmp ne i32 %8, 0
  br i1 %9, label %10, label %11

10:                                               ; preds = %2
  br label %20

11:                                               ; preds = %2
  call void @llvm.lifetime.start.p0(i64 4, ptr %5) #11
  %12 = call i32 @dt_conf_get_bool(ptr noundef @.str.89)
  %13 = icmp ne i32 %12, 0
  %14 = xor i1 %13, true
  %15 = zext i1 %14 to i32
  store i32 %15, ptr %5, align 4, !tbaa !31
  %16 = load i32, ptr %5, align 4, !tbaa !31
  call void @dt_conf_set_bool(ptr noundef @.str.89, i32 noundef %16)
  %17 = load ptr, ptr %4, align 8, !tbaa !6
  call void @_update_layout(ptr noundef %17)
  %18 = load ptr, ptr %4, align 8, !tbaa !6
  call void @_sort_attached_list(ptr noundef %18, i32 noundef 1)
  %19 = load ptr, ptr %4, align 8, !tbaa !6
  call void @_sort_dictionary_list(ptr noundef %19, i32 noundef 1)
  call void @llvm.lifetime.end.p0(i64 4, ptr %5) #11
  br label %20

20:                                               ; preds = %11, %10
  ret void
}