; Function Attrs: nounwind uwtable
define internal void @_toggle_hide_button_callback(ptr readnone captures(none) %0, ptr noundef readonly captures(none) %1) #1 {
  %3 = load ptr, ptr getelementptr inbounds nuw (i8, ptr @darktable, i64 104), align 8, !tbaa !125
  %4 = getelementptr inbounds nuw i8, ptr %3, i64 96
  %5 = load i32, ptr %4, align 8, !tbaa !126
  %.not = icmp eq i32 %5, 0
  br i1 %.not, label %6, label %39

6:                                                ; preds = %2
  %7 = tail call i32 @dt_conf_get_bool(ptr noundef nonnull @.str.89) #16
  %.not3 = icmp eq i32 %7, 0
  %8 = zext i1 %.not3 to i32
  tail call void @dt_conf_set_bool(ptr noundef nonnull @.str.89, i32 noundef %8) #16
  %9 = getelementptr i8, ptr %1, i64 280
  %.val5 = load ptr, ptr %9, align 8, !tbaa !6
  tail call fastcc void @_update_layout(ptr %.val5)
  %.val4 = load ptr, ptr %9, align 8, !tbaa !6
  %10 = getelementptr inbounds nuw i8, ptr %.val4, i64 1200
  %11 = load i32, ptr %10, align 8, !tbaa !54
  %.not7.i = icmp eq i32 %11, 0
  br i1 %.not7.i, label %..thread_crit_edge, label %12

..thread_crit_edge:                               ; preds = %6
  %.pre10 = tail call i64 @gtk_tree_sortable_get_type() #17
  br label %.thread

12:                                               ; preds = %6
  %13 = getelementptr inbounds nuw i8, ptr %.val4, i64 1136
  %14 = load ptr, ptr %13, align 8, !tbaa !97
  %15 = tail call i64 @gtk_tree_sortable_get_type() #17
  %16 = tail call ptr @g_type_check_instance_cast(ptr noundef %14, i64 noundef %15) #16
  tail call void @gtk_tree_sortable_set_sort_column_id(ptr noundef %16, i32 noundef 1, i32 noundef 0) #16
  %.pr = load i32, ptr %10, align 8, !tbaa !54
  %.not8.i = icmp eq i32 %.pr, 0
  br i1 %.not8.i, label %.thread, label %_sort_attached_list.exit

.thread:                                          ; preds = %..thread_crit_edge, %12
  %.pre.pre-phi = phi i64 [ %.pre10, %..thread_crit_edge ], [ %15, %12 ]
  %17 = getelementptr inbounds nuw i8, ptr %.val4, i64 1204
  %18 = load i32, ptr %17, align 4, !tbaa !55
  %.not9.i = icmp ne i32 %18, 0
  %19 = zext i1 %.not9.i to i32
  br label %_sort_attached_list.exit

_sort_attached_list.exit:                         ; preds = %12, %.thread
  %.pre-phi = phi i64 [ %15, %12 ], [ %.pre.pre-phi, %.thread ]
  %20 = phi i32 [ 2, %12 ], [ %19, %.thread ]
  %21 = getelementptr inbounds nuw i8, ptr %.val4, i64 1136
  %22 = load ptr, ptr %21, align 8, !tbaa !97
  %23 = tail call ptr @g_type_check_instance_cast(ptr noundef %22, i64 noundef %.pre-phi) #16
  tail call void @gtk_tree_sortable_set_sort_column_id(ptr noundef %23, i32 noundef %20, i32 noundef 0) #16
  %.val = load ptr, ptr %9, align 8, !tbaa !6
  %24 = getelementptr inbounds nuw i8, ptr %.val, i64 1192
  %25 = load i32, ptr %24, align 8, !tbaa !36
  %.not.i = icmp eq i32 %25, 0
  br i1 %.not.i, label %26, label %_sort_dictionary_list.exit

26:                                               ; preds = %_sort_attached_list.exit
  %27 = getelementptr inbounds nuw i8, ptr %.val, i64 1200
  %28 = load i32, ptr %27, align 8, !tbaa !54
  %.not10.i = icmp eq i32 %28, 0
  br i1 %.not10.i, label %.thread8, label %29

29:                                               ; preds = %26
  %30 = getelementptr inbounds nuw i8, ptr %.val, i64 1144
  %31 = load ptr, ptr %30, align 8, !tbaa !39
  %32 = tail call ptr @g_type_check_instance_cast(ptr noundef %31, i64 noundef %.pre-phi) #16
  tail call void @gtk_tree_sortable_set_sort_column_id(ptr noundef %32, i32 noundef 1, i32 noundef 0) #16
  %.pr7 = load i32, ptr %27, align 8, !tbaa !54
  %.not11.i = icmp eq i32 %.pr7, 0
  br i1 %.not11.i, label %.thread8, label %_sort_dictionary_list.exit

.thread8:                                         ; preds = %26, %29
  %33 = getelementptr inbounds nuw i8, ptr %.val, i64 1204
  %34 = load i32, ptr %33, align 4, !tbaa !55
  %.not12.i = icmp ne i32 %34, 0
  %35 = zext i1 %.not12.i to i32
  br label %_sort_dictionary_list.exit

_sort_dictionary_list.exit:                       ; preds = %_sort_attached_list.exit, %29, %.thread8
  %.sink4.i = phi i64 [ 1144, %29 ], [ 1144, %.thread8 ], [ 1152, %_sort_attached_list.exit ]
  %.sink1.i = phi i32 [ 2, %29 ], [ %35, %.thread8 ], [ 0, %_sort_attached_list.exit ]
  %36 = getelementptr inbounds nuw i8, ptr %.val, i64 %.sink4.i
  %37 = load ptr, ptr %36, align 8, !tbaa !47
  %38 = tail call ptr @g_type_check_instance_cast(ptr noundef %37, i64 noundef %.pre-phi) #16
  tail call void @gtk_tree_sortable_set_sort_column_id(ptr noundef %38, i32 noundef %.sink1.i, i32 noundef 0) #16
  br label %39

39:                                               ; preds = %2, %_sort_dictionary_list.exit
  ret void
}